; ModuleID = '35/84.c'
source_filename = "35/84.c"
target datalayout = "e-m:e-p270:32:32-p271:32:32-p272:64:64-i64:64-f80:128-n8:16:32:64-S128"
target triple = "x86_64-pc-linux-gnu"

@.str = private unnamed_addr constant [6 x i8] c"%d,%d\00", align 1
@.str.1 = private unnamed_addr constant [3 x i8] c"%d\00", align 1
@.str.2 = private unnamed_addr constant [7 x i8] c"%d+%d\0A\00", align 1
@.str.3 = private unnamed_addr constant [4 x i8] c"No\0A\00", align 1

; Function Attrs: noinline nounwind uwtable
define dso_local void @main() #0 {
  %1 = alloca i32, align 4
  %2 = alloca i32, align 4
  %3 = alloca i32, align 4
  %4 = alloca i32, align 4
  %5 = alloca [10 x [10 x i32]], align 16
  %6 = alloca [10 x i32]*, align 8
  %7 = alloca i32, align 4
  %8 = alloca i32, align 4
  %9 = alloca i32, align 4
  %10 = alloca i32, align 4
  %11 = alloca i32, align 4
  %12 = getelementptr inbounds [10 x [10 x i32]], [10 x [10 x i32]]* %5, i64 0, i64 0
  store [10 x i32]* %12, [10 x i32]** %6, align 8
  %13 = call i32 (i8*, ...) @__isoc99_scanf(i8* getelementptr inbounds ([6 x i8], [6 x i8]* @.str, i64 0, i64 0), i32* %1, i32* %2)
  store i32 0, i32* %3, align 4
  br label %14

14:                                               ; preds = %37, %0
  %15 = load i32, i32* %3, align 4
  %16 = load i32, i32* %1, align 4
  %17 = icmp slt i32 %15, %16
  br i1 %17, label %18, label %40

18:                                               ; preds = %14
  store i32 0, i32* %4, align 4
  br label %19

19:                                               ; preds = %33, %18
  %20 = load i32, i32* %4, align 4
  %21 = load i32, i32* %2, align 4
  %22 = icmp slt i32 %20, %21
  br i1 %22, label %23, label %36

23:                                               ; preds = %19
  %24 = load [10 x i32]*, [10 x i32]** %6, align 8
  %25 = load i32, i32* %3, align 4
  %26 = sext i32 %25 to i64
  %27 = getelementptr inbounds [10 x i32], [10 x i32]* %24, i64 %26
  %28 = getelementptr inbounds [10 x i32], [10 x i32]* %27, i64 0, i64 0
  %29 = load i32, i32* %4, align 4
  %30 = sext i32 %29 to i64
  %31 = getelementptr inbounds i32, i32* %28, i64 %30
  %32 = call i32 (i8*, ...) @__isoc99_scanf(i8* getelementptr inbounds ([3 x i8], [3 x i8]* @.str.1, i64 0, i64 0), i32* %31)
  br label %33

33:                                               ; preds = %23
  %34 = load i32, i32* %4, align 4
  %35 = add nsw i32 %34, 1
  store i32 %35, i32* %4, align 4
  br label %19

36:                                               ; preds = %19
  br label %37

37:                                               ; preds = %36
  %38 = load i32, i32* %3, align 4
  %39 = add nsw i32 %38, 1
  store i32 %39, i32* %3, align 4
  br label %14

40:                                               ; preds = %14
  %41 = getelementptr inbounds [10 x [10 x i32]], [10 x [10 x i32]]* %5, i64 0, i64 0
  store [10 x i32]* %41, [10 x i32]** %6, align 8
  store i32 0, i32* %11, align 4
  store i32 0, i32* %3, align 4
  br label %42

42:                                               ; preds = %123, %40
  %43 = load i32, i32* %3, align 4
  %44 = load i32, i32* %1, align 4
  %45 = icmp slt i32 %43, %44
  br i1 %45, label %46, label %126

46:                                               ; preds = %42
  %47 = load [10 x i32]*, [10 x i32]** %6, align 8
  %48 = getelementptr inbounds [10 x i32], [10 x i32]* %47, i64 0, i64 0
  %49 = load i32, i32* %48, align 4
  store i32 %49, i32* %7, align 4
  store i32 0, i32* %4, align 4
  br label %50

50:                                               ; preds = %78, %46
  %51 = load i32, i32* %4, align 4
  %52 = load i32, i32* %2, align 4
  %53 = icmp slt i32 %51, %52
  br i1 %53, label %54, label %81

54:                                               ; preds = %50
  %55 = load [10 x i32]*, [10 x i32]** %6, align 8
  %56 = load i32, i32* %3, align 4
  %57 = sext i32 %56 to i64
  %58 = getelementptr inbounds [10 x i32], [10 x i32]* %55, i64 %57
  %59 = getelementptr inbounds [10 x i32], [10 x i32]* %58, i64 0, i64 0
  %60 = load i32, i32* %4, align 4
  %61 = sext i32 %60 to i64
  %62 = getelementptr inbounds i32, i32* %59, i64 %61
  %63 = load i32, i32* %62, align 4
  %64 = load i32, i32* %7, align 4
  %65 = icmp sgt i32 %63, %64
  br i1 %65, label %66, label %77

66:                                               ; preds = %54
  %67 = load [10 x i32]*, [10 x i32]** %6, align 8
  %68 = load i32, i32* %3, align 4
  %69 = sext i32 %68 to i64
  %70 = getelementptr inbounds [10 x i32], [10 x i32]* %67, i64 %69
  %71 = getelementptr inbounds [10 x i32], [10 x i32]* %70, i64 0, i64 0
  %72 = load i32, i32* %4, align 4
  %73 = sext i32 %72 to i64
  %74 = getelementptr inbounds i32, i32* %71, i64 %73
  %75 = load i32, i32* %74, align 4
  store i32 %75, i32* %7, align 4
  %76 = load i32, i32* %4, align 4
  store i32 %76, i32* %9, align 4
  br label %77

77:                                               ; preds = %66, %54
  br label %78

78:                                               ; preds = %77
  %79 = load i32, i32* %4, align 4
  %80 = add nsw i32 %79, 1
  store i32 %80, i32* %4, align 4
  br label %50

81:                                               ; preds = %50
  %82 = getelementptr inbounds [10 x [10 x i32]], [10 x [10 x i32]]* %5, i64 0, i64 0
  store [10 x i32]* %82, [10 x i32]** %6, align 8
  %83 = load i32, i32* %7, align 4
  store i32 %83, i32* %8, align 4
  store i32 0, i32* %10, align 4
  br label %84

84:                                               ; preds = %111, %81
  %85 = load i32, i32* %10, align 4
  %86 = load i32, i32* %1, align 4
  %87 = icmp slt i32 %85, %86
  br i1 %87, label %88, label %114

88:                                               ; preds = %84
  %89 = load [10 x i32]*, [10 x i32]** %6, align 8
  %90 = load i32, i32* %10, align 4
  %91 = sext i32 %90 to i64
  %92 = getelementptr inbounds [10 x i32], [10 x i32]* %89, i64 %91
  %93 = getelementptr inbounds [10 x i32], [10 x i32]* %92, i64 0, i64 0
  %94 = load i32, i32* %9, align 4
  %95 = sext i32 %94 to i64
  %96 = getelementptr inbounds i32, i32* %93, i64 %95
  %97 = load i32, i32* %96, align 4
  %98 = load i32, i32* %8, align 4
  %99 = icmp slt i32 %97, %98
  br i1 %99, label %100, label %110

100:                                              ; preds = %88
  %101 = load [10 x i32]*, [10 x i32]** %6, align 8
  %102 = load i32, i32* %10, align 4
  %103 = sext i32 %102 to i64
  %104 = getelementptr inbounds [10 x i32], [10 x i32]* %101, i64 %103
  %105 = getelementptr inbounds [10 x i32], [10 x i32]* %104, i64 0, i64 0
  %106 = load i32, i32* %9, align 4
  %107 = sext i32 %106 to i64
  %108 = getelementptr inbounds i32, i32* %105, i64 %107
  %109 = load i32, i32* %108, align 4
  store i32 %109, i32* %8, align 4
  br label %110

110:                                              ; preds = %100, %88
  br label %111

111:                                              ; preds = %110
  %112 = load i32, i32* %10, align 4
  %113 = add nsw i32 %112, 1
  store i32 %113, i32* %10, align 4
  br label %84

114:                                              ; preds = %84
  %115 = load i32, i32* %7, align 4
  %116 = load i32, i32* %8, align 4
  %117 = icmp eq i32 %115, %116
  br i1 %117, label %118, label %122

118:                                              ; preds = %114
  %119 = load i32, i32* %3, align 4
  %120 = load i32, i32* %9, align 4
  %121 = call i32 (i8*, ...) @printf(i8* getelementptr inbounds ([7 x i8], [7 x i8]* @.str.2, i64 0, i64 0), i32 %119, i32 %120)
  store i32 1, i32* %11, align 4
  br label %122

122:                                              ; preds = %118, %114
  br label %123

123:                                              ; preds = %122
  %124 = load i32, i32* %3, align 4
  %125 = add nsw i32 %124, 1
  store i32 %125, i32* %3, align 4
  br label %42

126:                                              ; preds = %42
  %127 = load i32, i32* %11, align 4
  %128 = icmp eq i32 %127, 0
  br i1 %128, label %129, label %131

129:                                              ; preds = %126
  %130 = call i32 (i8*, ...) @printf(i8* getelementptr inbounds ([4 x i8], [4 x i8]* @.str.3, i64 0, i64 0))
  br label %131

131:                                              ; preds = %129, %126
  ret void
}

declare dso_local i32 @__isoc99_scanf(i8*, ...) #1

declare dso_local i32 @printf(i8*, ...) #1


!llvm.module.flags = !{!0}
!llvm.ident = !{!1}

!0 = !{i32 1, !"wchar_size", i32 4}
!1 = !{!"clang version 10.0.0-4ubuntu1 "}
